target datalayout = "e-m:e-p270:32:32-p271:32:32-p272:64:64-i64:64-i128:128-f80:128-n8:16:32:64-S128"
target triple = "x86_64-pc-linux-gnu"

%struct.gmx_mdoutf = type { ptr, ptr, ptr, ptr, i32, ptr, ptr, i8, i32, i8, i32, i32, ptr, i32, i32, ptr, ptr, ptr, ptr, ptr, i8, ptr }

@.str.2 = private unnamed_addr constant [3 x i8] c"of\00", align 1
@.str.3 = private unnamed_addr constant [122 x i8] c"generated/home/dtcxzyw/WorkSpace/Projects/compilers/llvm-opt-benchmark/bench/gromacs/gromacs/src/gromacs/mdlib/mdoutf.cpp\00", align 1
@.str.9 = private unnamed_addr constant [13 x i8] c"of->f_global\00", align 1

; Function Attrs: mustprogress uwtable
define internal void @_ZL14gmx_sfree_implI10gmx_mdoutfEvPKcS2_iPT_(ptr noundef %0, ptr noundef %1, i32 noundef %2, ptr noundef %3) #0 {
  %5 = alloca ptr, align 8
  %6 = alloca ptr, align 8
  %7 = alloca i32, align 4
  %8 = alloca ptr, align 8
  store ptr %0, ptr %5, align 8
  store ptr %1, ptr %6, align 8
  store i32 %2, ptr %7, align 4
  store ptr %3, ptr %8, align 8
  %9 = load ptr, ptr %5, align 8
  %10 = load ptr, ptr %6, align 8
  %11 = load i32, ptr %7, align 4
  %12 = load ptr, ptr %8, align 8
  call void @_Z9save_freePKcS0_iPv(ptr noundef %9, ptr noundef %10, i32 noundef %11, ptr noundef %12)
  ret void
}

; Function Attrs: mustprogress uwtable
define internal void @_ZL14gmx_sfree_implIA3_fEvPKcS2_iPT_(ptr noundef %0, ptr noundef %1, i32 noundef %2, ptr noundef %3) #0 {
  %5 = alloca ptr, align 8
  %6 = alloca ptr, align 8
  %7 = alloca i32, align 4
  %8 = alloca ptr, align 8
  store ptr %0, ptr %5, align 8
  store ptr %1, ptr %6, align 8
  store i32 %2, ptr %7, align 4
  store ptr %3, ptr %8, align 8
  %9 = load ptr, ptr %5, align 8
  %10 = load ptr, ptr %6, align 8
  %11 = load i32, ptr %7, align 4
  %12 = load ptr, ptr %8, align 8
  call void @_Z9save_freePKcS0_iPv(ptr noundef %9, ptr noundef %10, i32 noundef %11, ptr noundef %12)
  ret void
}

; Function Attrs: mustprogress uwtable
define void @_Z11done_mdoutfP10gmx_mdoutf(ptr noundef %0) #0 {
  %2 = alloca ptr, align 8
  store ptr %0, ptr %2, align 8
  %3 = load ptr, ptr %2, align 8
  %4 = getelementptr inbounds %struct.gmx_mdoutf, ptr %3, i32 0, i32 5
  %5 = load ptr, ptr %4, align 8
  %6 = icmp ne ptr %5, null
  br i1 %6, label %7, label %11

7:                                                ; preds = %1
  %8 = load ptr, ptr %2, align 8
  %9 = getelementptr inbounds %struct.gmx_mdoutf, ptr %8, i32 0, i32 5
  %10 = load ptr, ptr %9, align 8
  call void @_Z14done_ener_fileP9ener_file(ptr noundef %10)
  br label %11

11:                                               ; preds = %7, %1
  %12 = load ptr, ptr %2, align 8
  %13 = getelementptr inbounds %struct.gmx_mdoutf, ptr %12, i32 0, i32 1
  %14 = load ptr, ptr %13, align 8
  %15 = icmp ne ptr %14, null
  br i1 %15, label %16, label %20

16:                                               ; preds = %11
  %17 = load ptr, ptr %2, align 8
  %18 = getelementptr inbounds %struct.gmx_mdoutf, ptr %17, i32 0, i32 1
  %19 = load ptr, ptr %18, align 8
  call void @_Z9close_xtcP8t_fileio(ptr noundef %19)
  br label %20

20:                                               ; preds = %16, %11
  %21 = load ptr, ptr %2, align 8
  %22 = getelementptr inbounds %struct.gmx_mdoutf, ptr %21, i32 0, i32 0
  %23 = load ptr, ptr %22, align 8
  %24 = icmp ne ptr %23, null
  br i1 %24, label %25, label %29

25:                                               ; preds = %20
  %26 = load ptr, ptr %2, align 8
  %27 = getelementptr inbounds %struct.gmx_mdoutf, ptr %26, i32 0, i32 0
  %28 = load ptr, ptr %27, align 8
  call void @_Z13gmx_trr_closeP8t_fileio(ptr noundef %28)
  br label %29

29:                                               ; preds = %25, %20
  %30 = load ptr, ptr %2, align 8
  %31 = getelementptr inbounds %struct.gmx_mdoutf, ptr %30, i32 0, i32 12
  %32 = load ptr, ptr %31, align 8
  %33 = icmp ne ptr %32, null
  br i1 %33, label %34, label %39

34:                                               ; preds = %29
  %35 = load ptr, ptr %2, align 8
  %36 = getelementptr inbounds %struct.gmx_mdoutf, ptr %35, i32 0, i32 12
  %37 = load ptr, ptr %36, align 8
  %38 = call noundef i32 @_Z14gmx_fio_fcloseP8_IO_FILE(ptr noundef %37)
  br label %39

39:                                               ; preds = %34, %29
  %40 = load ptr, ptr %2, align 8
  %41 = getelementptr inbounds %struct.gmx_mdoutf, ptr %40, i32 0, i32 18
  %42 = load ptr, ptr %41, align 8
  %43 = load ptr, ptr %42, align 8
  %44 = getelementptr inbounds ptr, ptr %43, i64 1
  %45 = load ptr, ptr %44, align 8
  call void %45(ptr noundef nonnull align 8 dereferenceable(8) %42)
  %46 = load ptr, ptr %2, align 8
  %47 = getelementptr inbounds %struct.gmx_mdoutf, ptr %46, i32 0, i32 17
  %48 = load ptr, ptr %47, align 8
  %49 = icmp ne ptr %48, null
  br i1 %49, label %50, label %54

50:                                               ; preds = %39
  %51 = load ptr, ptr %2, align 8
  %52 = getelementptr inbounds %struct.gmx_mdoutf, ptr %51, i32 0, i32 17
  %53 = load ptr, ptr %52, align 8
  call void @_ZL14gmx_sfree_implIA3_fEvPKcS2_iPT_(ptr noundef @.str.9, ptr noundef @.str.3, i32 noundef 798, ptr noundef %53)
  br label %54

54:                                               ; preds = %50, %39
  %55 = load ptr, ptr %2, align 8
  %56 = getelementptr inbounds %struct.gmx_mdoutf, ptr %55, i32 0, i32 2
  call void @_Z13gmx_tng_closePP18gmx_tng_trajectory(ptr noundef %56)
  %57 = load ptr, ptr %2, align 8
  %58 = getelementptr inbounds %struct.gmx_mdoutf, ptr %57, i32 0, i32 3
  call void @_Z13gmx_tng_closePP18gmx_tng_trajectory(ptr noundef %58)
  %59 = load ptr, ptr %2, align 8
  call void @_ZL14gmx_sfree_implI10gmx_mdoutfEvPKcS2_iPT_(ptr noundef @.str.2, ptr noundef @.str.3, i32 noundef 804, ptr noundef %59)
  ret void
}