; Function Attrs: mustprogress uwtable
define void @_Z11done_mdoutfP10gmx_mdoutf(ptr noundef %0) local_unnamed_addr #0 {
  %2 = getelementptr inbounds i8, ptr %0, i64 40
  %3 = load ptr, ptr %2, align 8
  %.not = icmp eq ptr %3, null
  br i1 %.not, label %5, label %4

4:                                                ; preds = %1
  tail call void @_Z14done_ener_fileP9ener_file(ptr noundef nonnull %3)
  br label %5

5:                                                ; preds = %4, %1
  %6 = getelementptr inbounds i8, ptr %0, i64 8
  %7 = load ptr, ptr %6, align 8
  %.not18 = icmp eq ptr %7, null
  br i1 %.not18, label %9, label %8

8:                                                ; preds = %5
  tail call void @_Z9close_xtcP8t_fileio(ptr noundef nonnull %7)
  br label %9

9:                                                ; preds = %8, %5
  %10 = load ptr, ptr %0, align 8
  %.not19 = icmp eq ptr %10, null
  br i1 %.not19, label %12, label %11

11:                                               ; preds = %9
  tail call void @_Z13gmx_trr_closeP8t_fileio(ptr noundef nonnull %10)
  br label %12

12:                                               ; preds = %11, %9
  %13 = getelementptr inbounds i8, ptr %0, i64 80
  %14 = load ptr, ptr %13, align 8
  %.not20 = icmp eq ptr %14, null
  br i1 %.not20, label %17, label %15

15:                                               ; preds = %12
  %16 = tail call noundef i32 @_Z14gmx_fio_fcloseP8_IO_FILE(ptr noundef nonnull %14)
  br label %17

17:                                               ; preds = %15, %12
  %18 = getelementptr inbounds i8, ptr %0, i64 120
  %19 = load ptr, ptr %18, align 8
  %20 = load ptr, ptr %19, align 8
  %21 = getelementptr inbounds i8, ptr %20, i64 8
  %22 = load ptr, ptr %21, align 8
  tail call void %22(ptr noundef nonnull align 8 dereferenceable(8) %19)
  %23 = getelementptr inbounds i8, ptr %0, i64 112
  %24 = load ptr, ptr %23, align 8
  %.not21 = icmp eq ptr %24, null
  br i1 %.not21, label %26, label %25

25:                                               ; preds = %17
  tail call void @_Z9save_freePKcS0_iPv(ptr noundef nonnull @.str.9, ptr noundef nonnull @.str.3, i32 noundef 798, ptr noundef nonnull %24)
  br label %26

26:                                               ; preds = %25, %17
  %27 = getelementptr inbounds i8, ptr %0, i64 16
  tail call void @_Z13gmx_tng_closePP18gmx_tng_trajectory(ptr noundef nonnull %27)
  %28 = getelementptr inbounds i8, ptr %0, i64 24
  tail call void @_Z13gmx_tng_closePP18gmx_tng_trajectory(ptr noundef nonnull %28)
  tail call void @_Z9save_freePKcS0_iPv(ptr noundef nonnull @.str.2, ptr noundef nonnull @.str.3, i32 noundef 804, ptr noundef nonnull %0)
  ret void
}